target datalayout = "e-m:e-p270:32:32-p271:32:32-p272:64:64-i64:64-i128:128-f80:128-n8:16:32:64-S128"
target triple = "x86_64-pc-linux-gnu"

@stderr = external global ptr, align 8
@.str.1 = private unnamed_addr constant [109 x i8] c"generated/home/dtcxzyw/WorkSpace/Projects/compilers/llvm-opt-benchmark/bench/libzmq/libzmq/src/mechanism.cpp\00", align 1
@.str.3 = private unnamed_addr constant [30 x i8] c"Assertion failed: %s (%s:%d)\0A\00", align 1
@.str.4 = private unnamed_addr constant [67 x i8] c"socket_type_ >= 0 && socket_type_ < static_cast<int> (names_count)\00", align 1

; Function Attrs: mustprogress uwtable
define noundef ptr @_ZN3zmq11mechanism_t18socket_type_stringEi(i32 noundef %0) #0 align 2 {
  %2 = alloca i32, align 4
  store i32 %0, ptr %2, align 4, !tbaa !72
  br label %3

3:                                                ; preds = %1
  %4 = load i32, ptr %2, align 4, !tbaa !72
  %5 = icmp sge i32 %4, 0
  br i1 %5, label %6, label %9

6:                                                ; preds = %3
  %7 = load i32, ptr %2, align 4, !tbaa !72
  %8 = icmp slt i32 %7, 21
  br label %9

9:                                                ; preds = %6, %3
  %10 = phi i1 [ false, %3 ], [ %8, %6 ]
  %11 = xor i1 %10, true
  %12 = zext i1 %11 to i64
  %13 = call i64 @llvm.expect.i64(i64 %12, i64 0)
  %14 = icmp ne i64 %13, 0
  br i1 %14, label %15, label %20

15:                                               ; preds = %9
  %16 = load ptr, ptr @stderr, align 8, !tbaa !68
  %17 = call i32 (ptr, ptr, ...) @fprintf(ptr noundef %16, ptr noundef @.str.3, ptr noundef @.str.4, ptr noundef @.str.1, i32 noundef 92) #18
  %18 = load ptr, ptr @stderr, align 8, !tbaa !68
  %19 = call i32 @fflush(ptr noundef %18)
  call void @_ZN3zmq9zmq_abortEPKc(ptr noundef @.str.4)
  br label %20

20:                                               ; preds = %15, %9
  br label %21

21:                                               ; preds = %20
  %22 = load i32, ptr %2, align 4, !tbaa !72
  %23 = sext i32 %22 to i64
  %24 = getelementptr inbounds [21 x ptr], ptr @_ZZN3zmq11mechanism_t18socket_type_stringEiE5names, i64 0, i64 %23
  %25 = load ptr, ptr %24, align 8, !tbaa !67
  ret ptr %25
}