; Function Attrs: mustprogress uwtable
define noundef ptr @_ZN3zmq11mechanism_t18socket_type_stringEi(i32 noundef %0) local_unnamed_addr #0 align 2 {
  %2 = icmp ugt i32 %0, 20
  br i1 %2, label %3, label %8, !prof !36

3:                                                ; preds = %1
  %4 = load ptr, ptr @stderr, align 8, !tbaa !91
  %5 = tail call i32 (ptr, ptr, ...) @fprintf(ptr noundef %4, ptr noundef nonnull @.str.3, ptr noundef nonnull @.str.4, ptr noundef nonnull @.str.1, i32 noundef 92) #33
  %6 = load ptr, ptr @stderr, align 8, !tbaa !91
  %7 = tail call i32 @fflush(ptr noundef %6)
  tail call void @_ZN3zmq9zmq_abortEPKc(ptr noundef nonnull @.str.4)
  br label %8

8:                                                ; preds = %1, %3
  %9 = sext i32 %0 to i64
  %10 = getelementptr inbounds [21 x ptr], ptr @_ZZN3zmq11mechanism_t18socket_type_stringEiE5names, i64 0, i64 %9
  %11 = load ptr, ptr %10, align 8, !tbaa !87
  ret ptr %11
}